target datalayout = "e-m:e-p270:32:32-p271:32:32-p272:64:64-i64:64-i128:128-f80:128-n8:16:32:64-S128"
target triple = "x86_64-pc-linux-gnu"

@hf_nfs4_netloc = internal global i32 0, align 4
@hf_nfs4_netloc_type = internal global i32 0, align 4
@hf_nfs4_nl_name = internal global i32 0, align 4
@hf_nfs4_nl_url = internal global i32 0, align 4
@ett_nfs4_clientaddr = internal global i32 0, align 4
@.str.2486 = private unnamed_addr constant [8 x i8] c"netaddr\00", align 1

; Function Attrs: null_pointer_is_valid sspstrong uwtable
define internal i32 @dissect_nfsdata(ptr noundef %0, i32 noundef %1, ptr noundef %2, i32 noundef %3) #0 {
  %5 = alloca ptr, align 8
  %6 = alloca i32, align 4
  %7 = alloca ptr, align 8
  %8 = alloca i32, align 4
  store ptr %0, ptr %5, align 8
  store i32 %1, ptr %6, align 4
  store ptr %2, ptr %7, align 8
  store i32 %3, ptr %8, align 4
  %9 = load ptr, ptr %5, align 8
  %10 = load ptr, ptr %7, align 8
  %11 = load i32, ptr %8, align 4
  %12 = load i32, ptr %6, align 4
  %13 = call i32 @dissect_rpc_data(ptr noundef %9, ptr noundef %10, i32 noundef %11, i32 noundef %12)
  store i32 %13, ptr %6, align 4
  %14 = load i32, ptr %6, align 4
  ret i32 %14
}

; Function Attrs: null_pointer_is_valid sspstrong uwtable
define internal i32 @dissect_nfs_utf8string(ptr noundef %0, i32 noundef %1, ptr noundef %2, i32 noundef %3, ptr noundef %4) #0 {
  %6 = alloca ptr, align 8
  %7 = alloca i32, align 4
  %8 = alloca ptr, align 8
  %9 = alloca i32, align 4
  %10 = alloca ptr, align 8
  store ptr %0, ptr %6, align 8
  store i32 %1, ptr %7, align 4
  store ptr %2, ptr %8, align 8
  store i32 %3, ptr %9, align 4
  store ptr %4, ptr %10, align 8
  %11 = load ptr, ptr %6, align 8
  %12 = load ptr, ptr %8, align 8
  %13 = load i32, ptr %9, align 4
  %14 = load i32, ptr %7, align 4
  %15 = load ptr, ptr %10, align 8
  %16 = call i32 @dissect_rpc_string(ptr noundef %11, ptr noundef %12, i32 noundef %13, i32 noundef %14, ptr noundef %15)
  ret i32 %16
}

; Function Attrs: null_pointer_is_valid sspstrong uwtable
define internal i32 @dissect_nfs4_netloc(ptr noundef %0, i32 noundef %1, ptr noundef %2) #0 {
  %4 = alloca ptr, align 8
  %5 = alloca i32, align 4
  %6 = alloca ptr, align 8
  %7 = alloca i32, align 4
  %8 = alloca ptr, align 8
  %9 = alloca i32, align 4
  %10 = alloca ptr, align 8
  store ptr %0, ptr %4, align 8
  store i32 %1, ptr %5, align 4
  store ptr %2, ptr %6, align 8
  call void @llvm.lifetime.start.p0(i64 4, ptr %7) #16
  call void @llvm.lifetime.start.p0(i64 8, ptr %8) #16
  call void @llvm.lifetime.start.p0(i64 4, ptr %9) #16
  call void @llvm.lifetime.start.p0(i64 8, ptr %10) #16
  %11 = load ptr, ptr %4, align 8
  %12 = load i32, ptr %5, align 4
  %13 = call i32 @tvb_get_ntohl(ptr noundef %11, i32 noundef %12)
  store i32 %13, ptr %7, align 4
  %14 = load ptr, ptr %4, align 8
  %15 = load ptr, ptr %6, align 8
  %16 = load i32, ptr @hf_nfs4_netloc_type, align 4
  %17 = load i32, ptr %5, align 4
  %18 = call i32 @dissect_rpc_uint32(ptr noundef %14, ptr noundef %15, i32 noundef %16, i32 noundef %17)
  store i32 %18, ptr %5, align 4
  %19 = load i32, ptr %7, align 4
  switch i32 %19, label %47 [
    i32 1, label %20
    i32 2, label %26
    i32 3, label %32
  ]

20:                                               ; preds = %3
  %21 = load ptr, ptr %4, align 8
  %22 = load i32, ptr %5, align 4
  %23 = load ptr, ptr %6, align 8
  %24 = load i32, ptr @hf_nfs4_nl_name, align 4
  %25 = call i32 @dissect_nfs_utf8string(ptr noundef %21, i32 noundef %22, ptr noundef %23, i32 noundef %24, ptr noundef null)
  store i32 %25, ptr %5, align 4
  br label %55

26:                                               ; preds = %3
  %27 = load ptr, ptr %4, align 8
  %28 = load i32, ptr %5, align 4
  %29 = load ptr, ptr %6, align 8
  %30 = load i32, ptr @hf_nfs4_nl_url, align 4
  %31 = call i32 @dissect_nfs_utf8string(ptr noundef %27, i32 noundef %28, ptr noundef %29, i32 noundef %30, ptr noundef null)
  store i32 %31, ptr %5, align 4
  br label %55

32:                                               ; preds = %3
  %33 = load i32, ptr %5, align 4
  store i32 %33, ptr %9, align 4
  %34 = load ptr, ptr %6, align 8
  %35 = load ptr, ptr %4, align 8
  %36 = load i32, ptr %5, align 4
  %37 = load i32, ptr @ett_nfs4_clientaddr, align 4
  %38 = call ptr @proto_tree_add_subtree(ptr noundef %34, ptr noundef %35, i32 noundef %36, i32 noundef 0, i32 noundef %37, ptr noundef %10, ptr noundef @.str.2486)
  store ptr %38, ptr %8, align 8
  %39 = load ptr, ptr %4, align 8
  %40 = load i32, ptr %5, align 4
  %41 = load ptr, ptr %8, align 8
  %42 = call i32 @dissect_nfs4_clientaddr(ptr noundef %39, i32 noundef %40, ptr noundef %41)
  store i32 %42, ptr %5, align 4
  %43 = load ptr, ptr %10, align 8
  %44 = load i32, ptr %5, align 4
  %45 = load i32, ptr %9, align 4
  %46 = sub i32 %44, %45
  call void @proto_item_set_len(ptr noundef %43, i32 noundef %46)
  br label %55

47:                                               ; preds = %3
  %48 = load i32, ptr %5, align 4
  %49 = sub i32 %48, 4
  store i32 %49, ptr %5, align 4
  %50 = load ptr, ptr %4, align 8
  %51 = load i32, ptr %5, align 4
  %52 = load ptr, ptr %6, align 8
  %53 = load i32, ptr @hf_nfs4_netloc, align 4
  %54 = call i32 @dissect_nfsdata(ptr noundef %50, i32 noundef %51, ptr noundef %52, i32 noundef %53)
  store i32 %54, ptr %5, align 4
  br label %55

55:                                               ; preds = %47, %32, %26, %20
  %56 = load i32, ptr %5, align 4
  call void @llvm.lifetime.end.p0(i64 8, ptr %10) #16
  call void @llvm.lifetime.end.p0(i64 4, ptr %9) #16
  call void @llvm.lifetime.end.p0(i64 8, ptr %8) #16
  call void @llvm.lifetime.end.p0(i64 4, ptr %7) #16
  ret i32 %56
}