; Function Attrs: null_pointer_is_valid sspstrong uwtable
define internal fastcc i32 @dissect_nfs4_netloc(ptr noundef %0, i32 noundef %1, ptr noundef %2) unnamed_addr #0 {
  %4 = alloca ptr, align 8
  call void @llvm.lifetime.start.p0(i64 8, ptr nonnull %4) #22
  %5 = tail call i32 @tvb_get_ntohl(ptr noundef %0, i32 noundef %1)
  %6 = load i32, ptr @hf_nfs4_netloc_type, align 4
  %7 = tail call i32 @dissect_rpc_uint32(ptr noundef %0, ptr noundef %2, i32 noundef %6, i32 noundef %1)
  switch i32 %5, label %20 [
    i32 1, label %8
    i32 2, label %11
    i32 3, label %14
  ]

8:                                                ; preds = %3
  %9 = load i32, ptr @hf_nfs4_nl_name, align 4
  %10 = tail call i32 @dissect_rpc_string(ptr noundef %0, ptr noundef %2, i32 noundef %9, i32 noundef %7, ptr noundef null)
  br label %24

11:                                               ; preds = %3
  %12 = load i32, ptr @hf_nfs4_nl_url, align 4
  %13 = tail call i32 @dissect_rpc_string(ptr noundef %0, ptr noundef %2, i32 noundef %12, i32 noundef %7, ptr noundef null)
  br label %24

14:                                               ; preds = %3
  %15 = load i32, ptr @ett_nfs4_clientaddr, align 4
  %16 = call ptr @proto_tree_add_subtree(ptr noundef %2, ptr noundef %0, i32 noundef %7, i32 noundef 0, i32 noundef %15, ptr noundef nonnull %4, ptr noundef nonnull @.str.2486)
  %17 = call fastcc i32 @dissect_nfs4_clientaddr(ptr noundef %0, i32 noundef %7, ptr noundef %16)
  %18 = load ptr, ptr %4, align 8
  %19 = sub i32 %17, %7
  call void @proto_item_set_len(ptr noundef %18, i32 noundef %19)
  br label %24

20:                                               ; preds = %3
  %21 = add i32 %7, -4
  %22 = load i32, ptr @hf_nfs4_netloc, align 4
  %23 = tail call i32 @dissect_rpc_data(ptr noundef %0, ptr noundef %2, i32 noundef %22, i32 noundef %21)
  br label %24

24:                                               ; preds = %20, %14, %11, %8
  %.0 = phi i32 [ %23, %20 ], [ %17, %14 ], [ %13, %11 ], [ %10, %8 ]
  call void @llvm.lifetime.end.p0(i64 8, ptr nonnull %4) #22
  ret i32 %.0
}